; Function Attrs: nofree norecurse nosync nounwind memory(read, inaccessiblemem: none) uwtable
define hidden noundef ptr @BIO_find_type(ptr noundef readonly captures(address_is_null, ret: address, provenance) %0, i32 noundef %1) local_unnamed_addr #12 {
  %.not = icmp eq ptr %0, null
  br i1 %.not, label %.loopexit, label %3

3:                                                ; preds = %2
  %4 = and i32 %1, 255
  %.not18 = icmp eq i32 %4, 0
  br i1 %.not18, label %.split.us, label %.split

.split.us:                                        ; preds = %3, %9
  %.013.us = phi ptr [ %11, %9 ], [ %0, %3 ]
  %5 = load ptr, ptr %.013.us, align 8, !tbaa !6
  %.not17.us = icmp eq ptr %5, null
  br i1 %.not17.us, label %9, label %6

6:                                                ; preds = %.split.us
  %7 = load i32, ptr %5, align 8, !tbaa !33
  %8 = and i32 %7, %1
  %.not19.us = icmp eq i32 %8, 0
  br i1 %.not19.us, label %9, label %.loopexit

9:                                                ; preds = %6, %.split.us
  %10 = getelementptr inbounds nuw i8, ptr %.013.us, i64 56
  %11 = load ptr, ptr %10, align 8, !tbaa !21
  %.not20.us = icmp eq ptr %11, null
  br i1 %.not20.us, label %.loopexit, label %.split.us, !llvm.loop !39

.split:                                           ; preds = %3, %16
  %.013 = phi ptr [ %18, %16 ], [ %0, %3 ]
  %12 = load ptr, ptr %.013, align 8, !tbaa !6
  %.not17 = icmp eq ptr %12, null
  br i1 %.not17, label %16, label %13

13:                                               ; preds = %.split
  %14 = load i32, ptr %12, align 8, !tbaa !33
  %15 = icmp eq i32 %14, %1
  br i1 %15, label %.loopexit, label %16

16:                                               ; preds = %13, %.split
  %17 = getelementptr inbounds nuw i8, ptr %.013, i64 56
  %18 = load ptr, ptr %17, align 8, !tbaa !21
  %.not20 = icmp eq ptr %18, null
  br i1 %.not20, label %.loopexit, label %.split, !llvm.loop !39

.loopexit:                                        ; preds = %13, %16, %9, %6, %2
  %.0 = phi ptr [ null, %2 ], [ null, %9 ], [ %.013.us, %6 ], [ null, %16 ], [ %.013, %13 ]
  ret ptr %.0
}